; Function Attrs: mustprogress uwtable
define dso_local void @AbslInternalTraceWait(ptr noundef %0, i32 noundef %1) local_unnamed_addr #3 personality ptr @__gxx_personality_v0 {
  %3 = alloca %"class.std::tuple", align 8
  %4 = tail call align 8 ptr @llvm.threadlocal.address.p0(ptr align 8 @_ZN12_GLOBAL__N_111tls_recordsE)
  %5 = load ptr, ptr %4, align 8, !tbaa !4
  %.not = icmp eq ptr %5, null
  br i1 %.not, label %9, label %6

6:                                                ; preds = %2
  call void @llvm.lifetime.start.p0(i64 24, ptr nonnull %3) #24
  store i32 %1, ptr %3, align 8, !tbaa !9
  %7 = getelementptr inbounds nuw i8, ptr %3, i64 8
  store ptr %0, ptr %7, align 8, !tbaa !12
  %8 = getelementptr inbounds nuw i8, ptr %3, i64 16
  store i32 0, ptr %8, align 8, !tbaa !14
  call fastcc void @_ZNSt6vectorISt5tupleIJN12_GLOBAL__N_18FunctionEPKvN4absl13base_internal10ObjectKindEEESaIS8_EE9push_backEOS8_(ptr noundef nonnull align 8 dereferenceable(24) %5, ptr noundef nonnull align 8 dereferenceable(20) %3)
  call void @llvm.lifetime.end.p0(i64 24, ptr nonnull %3) #24
  br label %9

9:                                                ; preds = %6, %2
  ret void
}